target datalayout = "e-m:e-p270:32:32-p271:32:32-p272:64:64-i64:64-i128:128-f80:128-n8:16:32:64-S128"
target triple = "x86_64-pc-linux-gnu"

%"class.google::protobuf::internal::ExtensionSet" = type { ptr, i16, i16, %"union.google::protobuf::internal::ExtensionSet::AllocatedData" }
%"union.google::protobuf::internal::ExtensionSet::AllocatedData" = type { ptr }

; Function Attrs: inlinehint mustprogress nounwind uwtable
define linkonce_odr hidden void @_ZSt4swapIN6google8protobuf8internal12ExtensionSet13AllocatedDataEENSt9enable_ifIXsr6__and_ISt6__not_ISt15__is_tuple_likeIT_EESt21is_move_constructibleIS8_ESt18is_move_assignableIS8_EEE5valueEvE4typeERS8_SH_(ptr noundef nonnull align 8 dereferenceable(8) %0, ptr noundef nonnull align 8 dereferenceable(8) %1) #14 comdat {
  %3 = alloca ptr, align 8
  %4 = alloca ptr, align 8
  %5 = alloca %"union.google::protobuf::internal::ExtensionSet::AllocatedData", align 8
  store ptr %0, ptr %3, align 8, !tbaa !387
  store ptr %1, ptr %4, align 8, !tbaa !387
  call void @llvm.lifetime.start.p0(i64 8, ptr %5) #3
  %6 = load ptr, ptr %3, align 8, !tbaa !387
  call void @llvm.memcpy.p0.p0.i64(ptr align 8 %5, ptr align 8 %6, i64 8, i1 false), !tbaa.struct !363
  %7 = load ptr, ptr %4, align 8, !tbaa !387
  %8 = load ptr, ptr %3, align 8, !tbaa !387
  call void @llvm.memcpy.p0.p0.i64(ptr align 8 %8, ptr align 8 %7, i64 8, i1 false), !tbaa.struct !363
  %9 = load ptr, ptr %4, align 8, !tbaa !387
  call void @llvm.memcpy.p0.p0.i64(ptr align 8 %9, ptr align 8 %5, i64 8, i1 false), !tbaa.struct !363
  call void @llvm.lifetime.end.p0(i64 8, ptr %5) #3
  ret void
}

; Function Attrs: inlinehint mustprogress nounwind uwtable
define linkonce_odr void @_ZSt4swapItENSt9enable_ifIXsr6__and_ISt6__not_ISt15__is_tuple_likeIT_EESt21is_move_constructibleIS3_ESt18is_move_assignableIS3_EEE5valueEvE4typeERS3_SC_(ptr noundef nonnull align 2 dereferenceable(2) %0, ptr noundef nonnull align 2 dereferenceable(2) %1) #14 comdat {
  %3 = alloca ptr, align 8
  %4 = alloca ptr, align 8
  %5 = alloca i16, align 2
  store ptr %0, ptr %3, align 8, !tbaa !385
  store ptr %1, ptr %4, align 8, !tbaa !385
  call void @llvm.lifetime.start.p0(i64 2, ptr %5) #3
  %6 = load ptr, ptr %3, align 8, !tbaa !385
  %7 = load i16, ptr %6, align 2, !tbaa !58
  store i16 %7, ptr %5, align 2, !tbaa !58
  %8 = load ptr, ptr %4, align 8, !tbaa !385
  %9 = load i16, ptr %8, align 2, !tbaa !58
  %10 = load ptr, ptr %3, align 8, !tbaa !385
  store i16 %9, ptr %10, align 2, !tbaa !58
  %11 = load i16, ptr %5, align 2, !tbaa !58
  %12 = load ptr, ptr %4, align 8, !tbaa !385
  store i16 %11, ptr %12, align 2, !tbaa !58
  call void @llvm.lifetime.end.p0(i64 2, ptr %5) #3
  ret void
}

; Function Attrs: inlinehint mustprogress nounwind uwtable
define linkonce_odr hidden void @_ZSt4swapIPN6google8protobuf5ArenaEENSt9enable_ifIXsr6__and_ISt6__not_ISt15__is_tuple_likeIT_EESt21is_move_constructibleIS7_ESt18is_move_assignableIS7_EEE5valueEvE4typeERS7_SG_(ptr noundef nonnull align 8 dereferenceable(8) %0, ptr noundef nonnull align 8 dereferenceable(8) %1) #14 comdat {
  %3 = alloca ptr, align 8
  %4 = alloca ptr, align 8
  %5 = alloca ptr, align 8
  store ptr %0, ptr %3, align 8, !tbaa !383
  store ptr %1, ptr %4, align 8, !tbaa !383
  call void @llvm.lifetime.start.p0(i64 8, ptr %5) #3
  %6 = load ptr, ptr %3, align 8, !tbaa !383
  %7 = load ptr, ptr %6, align 8, !tbaa !45
  store ptr %7, ptr %5, align 8, !tbaa !45
  %8 = load ptr, ptr %4, align 8, !tbaa !383
  %9 = load ptr, ptr %8, align 8, !tbaa !45
  %10 = load ptr, ptr %3, align 8, !tbaa !383
  store ptr %9, ptr %10, align 8, !tbaa !45
  %11 = load ptr, ptr %5, align 8, !tbaa !45
  %12 = load ptr, ptr %4, align 8, !tbaa !383
  store ptr %11, ptr %12, align 8, !tbaa !45
  call void @llvm.lifetime.end.p0(i64 8, ptr %5) #3
  ret void
}

; Function Attrs: mustprogress nounwind uwtable
define hidden void @_ZN6google8protobuf8internal12ExtensionSet12InternalSwapEPS2_(ptr noundef nonnull align 8 dereferenceable(24) %0, ptr noundef %1) #4 align 2 {
  %3 = alloca ptr, align 8
  %4 = alloca ptr, align 8
  store ptr %0, ptr %3, align 8, !tbaa !43
  store ptr %1, ptr %4, align 8, !tbaa !43
  %5 = load ptr, ptr %3, align 8
  %6 = getelementptr inbounds nuw %"class.google::protobuf::internal::ExtensionSet", ptr %5, i32 0, i32 0
  %7 = load ptr, ptr %4, align 8, !tbaa !43
  %8 = getelementptr inbounds nuw %"class.google::protobuf::internal::ExtensionSet", ptr %7, i32 0, i32 0
  call void @_ZSt4swapIPN6google8protobuf5ArenaEENSt9enable_ifIXsr6__and_ISt6__not_ISt15__is_tuple_likeIT_EESt21is_move_constructibleIS7_ESt18is_move_assignableIS7_EEE5valueEvE4typeERS7_SG_(ptr noundef nonnull align 8 dereferenceable(8) %6, ptr noundef nonnull align 8 dereferenceable(8) %8) #3
  %9 = getelementptr inbounds nuw %"class.google::protobuf::internal::ExtensionSet", ptr %5, i32 0, i32 1
  %10 = load ptr, ptr %4, align 8, !tbaa !43
  %11 = getelementptr inbounds nuw %"class.google::protobuf::internal::ExtensionSet", ptr %10, i32 0, i32 1
  call void @_ZSt4swapItENSt9enable_ifIXsr6__and_ISt6__not_ISt15__is_tuple_likeIT_EESt21is_move_constructibleIS3_ESt18is_move_assignableIS3_EEE5valueEvE4typeERS3_SC_(ptr noundef nonnull align 2 dereferenceable(2) %9, ptr noundef nonnull align 2 dereferenceable(2) %11) #3
  %12 = getelementptr inbounds nuw %"class.google::protobuf::internal::ExtensionSet", ptr %5, i32 0, i32 2
  %13 = load ptr, ptr %4, align 8, !tbaa !43
  %14 = getelementptr inbounds nuw %"class.google::protobuf::internal::ExtensionSet", ptr %13, i32 0, i32 2
  call void @_ZSt4swapItENSt9enable_ifIXsr6__and_ISt6__not_ISt15__is_tuple_likeIT_EESt21is_move_constructibleIS3_ESt18is_move_assignableIS3_EEE5valueEvE4typeERS3_SC_(ptr noundef nonnull align 2 dereferenceable(2) %12, ptr noundef nonnull align 2 dereferenceable(2) %14) #3
  %15 = getelementptr inbounds nuw %"class.google::protobuf::internal::ExtensionSet", ptr %5, i32 0, i32 3
  %16 = load ptr, ptr %4, align 8, !tbaa !43
  %17 = getelementptr inbounds nuw %"class.google::protobuf::internal::ExtensionSet", ptr %16, i32 0, i32 3
  call void @_ZSt4swapIN6google8protobuf8internal12ExtensionSet13AllocatedDataEENSt9enable_ifIXsr6__and_ISt6__not_ISt15__is_tuple_likeIT_EESt21is_move_constructibleIS8_ESt18is_move_assignableIS8_EEE5valueEvE4typeERS8_SH_(ptr noundef nonnull align 8 dereferenceable(8) %15, ptr noundef nonnull align 8 dereferenceable(8) %17) #3
  ret void
}