; Function Attrs: mustprogress nofree norecurse nosync nounwind willreturn memory(argmem: readwrite) uwtable
define hidden void @_ZN6google8protobuf8internal12ExtensionSet12InternalSwapEPS2_(ptr noundef nonnull align 8 captures(none) dereferenceable(24) %0, ptr noundef captures(none) %1) local_unnamed_addr #18 align 2 {
  %3 = load ptr, ptr %0, align 8, !tbaa !166
  %4 = load ptr, ptr %1, align 8, !tbaa !166
  store ptr %4, ptr %0, align 8, !tbaa !166
  store ptr %3, ptr %1, align 8, !tbaa !166
  %5 = getelementptr inbounds nuw i8, ptr %0, i64 8
  %6 = getelementptr inbounds nuw i8, ptr %1, i64 8
  %7 = load i16, ptr %5, align 8, !tbaa !165
  %8 = load i16, ptr %6, align 2, !tbaa !165
  store i16 %8, ptr %5, align 8, !tbaa !165
  store i16 %7, ptr %6, align 2, !tbaa !165
  %9 = getelementptr inbounds nuw i8, ptr %0, i64 10
  %10 = getelementptr inbounds nuw i8, ptr %1, i64 10
  %11 = load i16, ptr %9, align 2, !tbaa !165
  %12 = load i16, ptr %10, align 2, !tbaa !165
  store i16 %12, ptr %9, align 2, !tbaa !165
  store i16 %11, ptr %10, align 2, !tbaa !165
  %13 = getelementptr inbounds nuw i8, ptr %0, i64 16
  %14 = getelementptr inbounds nuw i8, ptr %1, i64 16
  %.sroa.0.0.copyload.i = load ptr, ptr %13, align 8, !tbaa !38
  %15 = load i64, ptr %14, align 8, !tbaa !38
  store i64 %15, ptr %13, align 8, !tbaa !38
  store ptr %.sroa.0.0.copyload.i, ptr %14, align 8, !tbaa !38
  ret void
}